target datalayout = "e-m:e-p270:32:32-p271:32:32-p272:64:64-i64:64-i128:128-f80:128-n8:16:32:64-S128"
target triple = "x86_64-pc-linux-gnu"

%struct._value_string = type { i32, ptr }
%struct._asn1_ctx_t = type { i32, i32, i8, ptr, ptr, ptr, ptr, ptr, %struct.anon.1, %struct.anon.4, %struct.anon.5, ptr }
%struct.anon.1 = type { i32, i8, i8, i8, ptr, ptr, i32, i32, ptr, ptr, ptr, %union.anon }
%union.anon = type { %struct.anon.2 }
%struct.anon.2 = type { ptr }
%struct.anon.4 = type { ptr, ptr, ptr }
%struct.anon.5 = type { i32, i8, ptr, i32, i32, ptr, ptr, ptr, %union.anon.6 }
%union.anon.6 = type { %struct.anon.7 }
%struct.anon.7 = type { ptr }

@hf_camel_cause_indicator = internal global i32 0, align 4
@ett_camel_cause = internal global i32 0, align 4
@isup_parameter_type_value = external constant [0 x %struct._value_string], align 8

; Function Attrs: null_pointer_is_valid sspstrong uwtable
define internal i32 @dissect_camel_Cause(i1 noundef zeroext %0, ptr noundef %1, i32 noundef %2, ptr noundef %3, ptr noundef %4, i32 noundef %5) #0 {
  %7 = alloca i32, align 4
  %8 = alloca i8, align 1
  %9 = alloca ptr, align 8
  %10 = alloca i32, align 4
  %11 = alloca ptr, align 8
  %12 = alloca ptr, align 8
  %13 = alloca i32, align 4
  %14 = alloca ptr, align 8
  %15 = alloca i8, align 1
  %16 = alloca ptr, align 8
  %17 = alloca i32, align 4
  %18 = zext i1 %0 to i8
  store i8 %18, ptr %8, align 1
  store ptr %1, ptr %9, align 8
  store i32 %2, ptr %10, align 4
  store ptr %3, ptr %11, align 8
  store ptr %4, ptr %12, align 8
  store i32 %5, ptr %13, align 4
  call void @llvm.lifetime.start.p0(i64 8, ptr %14) #11
  call void @llvm.lifetime.start.p0(i64 1, ptr %15) #11
  call void @llvm.lifetime.start.p0(i64 8, ptr %16) #11
  %19 = load i8, ptr %8, align 1, !range !6, !noundef !7
  %20 = trunc i8 %19 to i1
  %21 = load ptr, ptr %11, align 8
  %22 = load ptr, ptr %12, align 8
  %23 = load ptr, ptr %9, align 8
  %24 = load i32, ptr %10, align 4
  %25 = load i32, ptr %13, align 4
  %26 = call i32 @dissect_ber_octet_string(i1 noundef zeroext %20, ptr noundef %21, ptr noundef %22, ptr noundef %23, i32 noundef %24, i32 noundef %25, ptr noundef %14)
  store i32 %26, ptr %10, align 4
  %27 = load ptr, ptr %14, align 8
  %28 = icmp ne ptr %27, null
  br i1 %28, label %31, label %29

29:                                               ; preds = %6
  %30 = load i32, ptr %10, align 4
  store i32 %30, ptr %7, align 4
  store i32 1, ptr %17, align 4
  br label %43

31:                                               ; preds = %6
  %32 = load ptr, ptr %11, align 8
  %33 = getelementptr inbounds nuw %struct._asn1_ctx_t, ptr %32, i32 0, i32 4
  %34 = load ptr, ptr %33, align 8
  %35 = load i32, ptr @ett_camel_cause, align 4
  %36 = call ptr @proto_item_add_subtree(ptr noundef %34, i32 noundef %35)
  store ptr %36, ptr %16, align 8
  %37 = load ptr, ptr %14, align 8
  %38 = load ptr, ptr %14, align 8
  %39 = call i32 @tvb_reported_length_remaining(ptr noundef %38, i32 noundef 0)
  %40 = load ptr, ptr %16, align 8
  %41 = load i32, ptr @hf_camel_cause_indicator, align 4
  call void @dissect_q931_cause_ie(ptr noundef %37, i32 noundef 0, i32 noundef %39, ptr noundef %40, i32 noundef %41, ptr noundef %15, ptr noundef @isup_parameter_type_value)
  %42 = load i32, ptr %10, align 4
  store i32 %42, ptr %7, align 4
  store i32 1, ptr %17, align 4
  br label %43

43:                                               ; preds = %31, %29
  call void @llvm.lifetime.end.p0(i64 8, ptr %16) #11
  call void @llvm.lifetime.end.p0(i64 1, ptr %15) #11
  call void @llvm.lifetime.end.p0(i64 8, ptr %14) #11
  %44 = load i32, ptr %7, align 4
  ret i32 %44
}

; Function Attrs: null_pointer_is_valid sspstrong uwtable
define internal i32 @dissect_camel_AllCallSegments(i1 noundef zeroext %0, ptr noundef %1, i32 noundef %2, ptr noundef %3, ptr noundef %4, i32 noundef %5) #0 {
  %7 = alloca i8, align 1
  %8 = alloca ptr, align 8
  %9 = alloca i32, align 4
  %10 = alloca ptr, align 8
  %11 = alloca ptr, align 8
  %12 = alloca i32, align 4
  %13 = zext i1 %0 to i8
  store i8 %13, ptr %7, align 1
  store ptr %1, ptr %8, align 8
  store i32 %2, ptr %9, align 4
  store ptr %3, ptr %10, align 8
  store ptr %4, ptr %11, align 8
  store i32 %5, ptr %12, align 4
  %14 = load i8, ptr %7, align 1, !range !6, !noundef !7
  %15 = trunc i8 %14 to i1
  %16 = load ptr, ptr %8, align 8
  %17 = load i32, ptr %9, align 4
  %18 = load ptr, ptr %10, align 8
  %19 = load ptr, ptr %11, align 8
  %20 = load i32, ptr %12, align 4
  %21 = call i32 @dissect_camel_Cause(i1 noundef zeroext %15, ptr noundef %16, i32 noundef %17, ptr noundef %18, ptr noundef %19, i32 noundef %20)
  store i32 %21, ptr %9, align 4
  %22 = load i32, ptr %9, align 4
  ret i32 %22
}