; Function Attrs: null_pointer_is_valid sspstrong uwtable
define internal i32 @dissect_camel_AllCallSegments(i1 noundef zeroext %0, ptr noundef %1, i32 noundef %2, ptr noundef %3, ptr noundef %4, i32 noundef %5) #0 {
  %7 = alloca ptr, align 8
  %8 = alloca i8, align 1
  call void @llvm.lifetime.start.p0(i64 8, ptr nonnull %7) #12
  call void @llvm.lifetime.start.p0(i64 1, ptr nonnull %8) #12
  %9 = call i32 @dissect_ber_octet_string(i1 noundef zeroext %0, ptr noundef %3, ptr noundef %4, ptr noundef %1, i32 noundef %2, i32 noundef %5, ptr noundef nonnull %7)
  %10 = load ptr, ptr %7, align 8
  %.not.i = icmp eq ptr %10, null
  br i1 %.not.i, label %dissect_camel_Cause.exit, label %11

11:                                               ; preds = %6
  %12 = getelementptr inbounds nuw i8, ptr %3, i64 24
  %13 = load ptr, ptr %12, align 8
  %14 = load i32, ptr @ett_camel_cause, align 4
  %15 = call ptr @proto_item_add_subtree(ptr noundef %13, i32 noundef %14)
  %16 = load ptr, ptr %7, align 8
  %17 = call i32 @tvb_reported_length_remaining(ptr noundef %16, i32 noundef 0)
  %18 = load i32, ptr @hf_camel_cause_indicator, align 4
  call void @dissect_q931_cause_ie(ptr noundef %16, i32 noundef 0, i32 noundef %17, ptr noundef %15, i32 noundef %18, ptr noundef nonnull %8, ptr noundef nonnull @isup_parameter_type_value)
  br label %dissect_camel_Cause.exit

dissect_camel_Cause.exit:                         ; preds = %6, %11
  call void @llvm.lifetime.end.p0(i64 1, ptr nonnull %8) #12
  call void @llvm.lifetime.end.p0(i64 8, ptr nonnull %7) #12
  ret i32 %9
}